target datalayout = "e-m:e-p270:32:32-p271:32:32-p272:64:64-i64:64-i128:128-f80:128-n8:16:32:64-S128"
target triple = "x86_64-pc-linux-gnu"

%struct.fstWriterContext = type { ptr, ptr, ptr, ptr, ptr, ptr, ptr, i64, ptr, ptr, ptr, i32, ptr, i32, i32, i32, i8, i64, i64, i32, i32, i64, i64, i32, i32, i32, i64, i32, double, ptr, ptr, i32, i64, i8, i8, i8, i8, i8, i64, i64, i64, i64, i64, i32, ptr, i32, i8, ptr, ptr, ptr, ptr, i32 }

@stderr = external global ptr, align 8
@.str.10 = private unnamed_addr constant [96 x i8] c"FSTAPI  | fstWriterSetParallelMode(), FST_WRITER_PARALLEL not enabled during compile, exiting.\0A\00", align 1

; Function Attrs: mustprogress nounwind uwtable
define void @fstWriterSetParallelMode(ptr noundef %0, i32 noundef %1) #8 {
  %3 = alloca ptr, align 8
  %4 = alloca i32, align 4
  %5 = alloca ptr, align 8
  store ptr %0, ptr %3, align 8, !tbaa !50
  store i32 %1, ptr %4, align 4, !tbaa !11
  call void @llvm.lifetime.start.p0(i64 8, ptr %5) #15
  %6 = load ptr, ptr %3, align 8, !tbaa !50
  store ptr %6, ptr %5, align 8, !tbaa !13
  %7 = load ptr, ptr %5, align 8, !tbaa !13
  %8 = icmp ne ptr %7, null
  br i1 %8, label %9, label %50

9:                                                ; preds = %2
  %10 = load ptr, ptr %5, align 8, !tbaa !13
  %11 = getelementptr inbounds nuw %struct.fstWriterContext, ptr %10, i32 0, i32 34
  %12 = load i8, ptr %11, align 1
  %13 = lshr i8 %12, 6
  %14 = and i8 %13, 1
  %15 = zext i8 %14 to i32
  %16 = load ptr, ptr %5, align 8, !tbaa !13
  %17 = getelementptr inbounds nuw %struct.fstWriterContext, ptr %16, i32 0, i32 34
  %18 = load i8, ptr %17, align 1
  %19 = lshr i8 %18, 7
  %20 = zext i8 %19 to i32
  %21 = or i32 %20, %15
  %22 = trunc i32 %21 to i8
  %23 = load i8, ptr %17, align 1
  %24 = and i8 %22, 1
  %25 = shl i8 %24, 7
  %26 = and i8 %23, 127
  %27 = or i8 %26, %25
  store i8 %27, ptr %17, align 1
  %28 = load i32, ptr %4, align 4, !tbaa !11
  %29 = icmp ne i32 %28, 0
  %30 = zext i1 %29 to i32
  %31 = load ptr, ptr %5, align 8, !tbaa !13
  %32 = getelementptr inbounds nuw %struct.fstWriterContext, ptr %31, i32 0, i32 34
  %33 = trunc i32 %30 to i8
  %34 = load i8, ptr %32, align 1
  %35 = and i8 %33, 1
  %36 = shl i8 %35, 6
  %37 = and i8 %34, -65
  %38 = or i8 %37, %36
  store i8 %38, ptr %32, align 1
  %39 = load ptr, ptr %5, align 8, !tbaa !13
  %40 = getelementptr inbounds nuw %struct.fstWriterContext, ptr %39, i32 0, i32 34
  %41 = load i8, ptr %40, align 1
  %42 = lshr i8 %41, 6
  %43 = and i8 %42, 1
  %44 = zext i8 %43 to i32
  %45 = icmp ne i32 %44, 0
  br i1 %45, label %46, label %49

46:                                               ; preds = %9
  %47 = load ptr, ptr @stderr, align 8, !tbaa !33
  %48 = call i32 (ptr, ptr, ...) @fprintf(ptr noundef %47, ptr noundef @.str.10) #15
  call void @exit(i32 noundef 255) #21
  unreachable

49:                                               ; preds = %9
  br label %50

50:                                               ; preds = %49, %2
  call void @llvm.lifetime.end.p0(i64 8, ptr %5) #15
  ret void
}