; Function Attrs: mustprogress nofree nounwind uwtable
define void @fstWriterSetParallelMode(ptr noundef captures(address_is_null) %0, i32 noundef %1) local_unnamed_addr #14 {
  %.not = icmp eq ptr %0, null
  br i1 %.not, label %14, label %3

3:                                                ; preds = %2
  %4 = getelementptr inbounds nuw i8, ptr %0, i64 233
  %5 = load i8, ptr %4, align 1
  %6 = shl i8 %5, 1
  %7 = and i8 %6, -128
  %.not6 = icmp eq i32 %1, 0
  %8 = select i1 %.not6, i8 0, i8 64
  %.masked = and i8 %5, -65
  %9 = or disjoint i8 %.masked, %8
  %10 = or i8 %9, %7
  store i8 %10, ptr %4, align 1
  br i1 %.not6, label %14, label %11

11:                                               ; preds = %3
  %12 = load ptr, ptr @stderr, align 8, !tbaa !41
  %13 = tail call i64 @fwrite(ptr nonnull @.str.10, i64 95, i64 1, ptr %12) #44
  tail call void @exit(i32 noundef 255) #46
  unreachable

14:                                               ; preds = %3, %2
  ret void
}